target datalayout = "e-m:e-p270:32:32-p271:32:32-p272:64:64-i64:64-i128:128-f80:128-n8:16:32:64-S128"
target triple = "x86_64-pc-linux-gnu"

%struct.Pdr_Set_t_ = type { i64, i32, i32, i32, [0 x i32] }
%struct.Pdr_Man_t_ = type { ptr, ptr, ptr, ptr, ptr, ptr, ptr, ptr, %struct.Vec_Ptr_t_, ptr, i32, i32, ptr, ptr, ptr, ptr, ptr, ptr, i32, i32, ptr, ptr, ptr, i32, i32, ptr, ptr, ptr, ptr, ptr, ptr, ptr, ptr, ptr, ptr, ptr, ptr, ptr, ptr, i32, i32, i32, i32, i32, i32, i32, i32, i32, i32, i32, i32, i32, i32, i32, i32, i32, i64, i64, i64, i64, i64, i64, i64, i64, i64, i64, i64, i64 }
%struct.Vec_Ptr_t_ = type { i32, i32, ptr }
%struct.Vec_Int_t_ = type { i32, i32, ptr }

; Function Attrs: inlinehint nounwind uwtable
define internal ptr @Vec_IntArray(ptr noundef %0) #1 {
  %2 = alloca ptr, align 8
  store ptr %0, ptr %2, align 8, !tbaa !49
  %3 = load ptr, ptr %2, align 8, !tbaa !49
  %4 = getelementptr inbounds nuw %struct.Vec_Int_t_, ptr %3, i32 0, i32 2
  %5 = load ptr, ptr %4, align 8, !tbaa !85
  ret ptr %5
}

; Function Attrs: nounwind uwtable
define ptr @Pdr_ManSortByPriority(ptr noundef %0, ptr noundef %1) #0 {
  %3 = alloca ptr, align 8
  %4 = alloca ptr, align 8
  %5 = alloca ptr, align 8
  %6 = alloca ptr, align 8
  %7 = alloca i32, align 4
  %8 = alloca i32, align 4
  %9 = alloca i32, align 4
  %10 = alloca i32, align 4
  %11 = alloca i32, align 4
  store ptr %0, ptr %3, align 8, !tbaa !43
  store ptr %1, ptr %4, align 8, !tbaa !45
  call void @llvm.lifetime.start.p0(i64 8, ptr %5) #10
  %12 = load ptr, ptr %3, align 8, !tbaa !43
  %13 = getelementptr inbounds nuw %struct.Pdr_Man_t_, ptr %12, i32 0, i32 26
  %14 = load ptr, ptr %13, align 8, !tbaa !109
  %15 = call ptr @Vec_IntArray(ptr noundef %14)
  store ptr %15, ptr %5, align 8, !tbaa !47
  call void @llvm.lifetime.start.p0(i64 8, ptr %6) #10
  %16 = load ptr, ptr %3, align 8, !tbaa !43
  %17 = getelementptr inbounds nuw %struct.Pdr_Man_t_, ptr %16, i32 0, i32 16
  %18 = load ptr, ptr %17, align 8, !tbaa !110
  store ptr %18, ptr %6, align 8, !tbaa !47
  call void @llvm.lifetime.start.p0(i64 4, ptr %7) #10
  call void @llvm.lifetime.start.p0(i64 4, ptr %8) #10
  call void @llvm.lifetime.start.p0(i64 4, ptr %9) #10
  call void @llvm.lifetime.start.p0(i64 4, ptr %10) #10
  call void @llvm.lifetime.start.p0(i64 4, ptr %11) #10
  %19 = load ptr, ptr %4, align 8, !tbaa !45
  %20 = getelementptr inbounds nuw %struct.Pdr_Set_t_, ptr %19, i32 0, i32 3
  %21 = load i32, ptr %20, align 8, !tbaa !50
  store i32 %21, ptr %11, align 4, !tbaa !3
  store i32 0, ptr %8, align 4, !tbaa !3
  br label %22

22:                                               ; preds = %32, %2
  %23 = load i32, ptr %8, align 4, !tbaa !3
  %24 = load i32, ptr %11, align 4, !tbaa !3
  %25 = icmp slt i32 %23, %24
  br i1 %25, label %26, label %35

26:                                               ; preds = %22
  %27 = load i32, ptr %8, align 4, !tbaa !3
  %28 = load ptr, ptr %6, align 8, !tbaa !47
  %29 = load i32, ptr %8, align 4, !tbaa !3
  %30 = sext i32 %29 to i64
  %31 = getelementptr inbounds i32, ptr %28, i64 %30
  store i32 %27, ptr %31, align 4, !tbaa !3
  br label %32

32:                                               ; preds = %26
  %33 = load i32, ptr %8, align 4, !tbaa !3
  %34 = add nsw i32 %33, 1
  store i32 %34, ptr %8, align 4, !tbaa !3
  br label %22, !llvm.loop !111

35:                                               ; preds = %22
  store i32 0, ptr %8, align 4, !tbaa !3
  br label %36

36:                                               ; preds = %107, %35
  %37 = load i32, ptr %8, align 4, !tbaa !3
  %38 = load i32, ptr %11, align 4, !tbaa !3
  %39 = sub nsw i32 %38, 1
  %40 = icmp slt i32 %37, %39
  br i1 %40, label %41, label %110

41:                                               ; preds = %36
  %42 = load i32, ptr %8, align 4, !tbaa !3
  store i32 %42, ptr %10, align 4, !tbaa !3
  %43 = load i32, ptr %8, align 4, !tbaa !3
  %44 = add nsw i32 %43, 1
  store i32 %44, ptr %9, align 4, !tbaa !3
  br label %45

45:                                               ; preds = %84, %41
  %46 = load i32, ptr %9, align 4, !tbaa !3
  %47 = load i32, ptr %11, align 4, !tbaa !3
  %48 = icmp slt i32 %46, %47
  br i1 %48, label %49, label %87

49:                                               ; preds = %45
  %50 = load ptr, ptr %5, align 8, !tbaa !47
  %51 = load ptr, ptr %4, align 8, !tbaa !45
  %52 = getelementptr inbounds nuw %struct.Pdr_Set_t_, ptr %51, i32 0, i32 4
  %53 = load ptr, ptr %6, align 8, !tbaa !47
  %54 = load i32, ptr %9, align 4, !tbaa !3
  %55 = sext i32 %54 to i64
  %56 = getelementptr inbounds i32, ptr %53, i64 %55
  %57 = load i32, ptr %56, align 4, !tbaa !3
  %58 = sext i32 %57 to i64
  %59 = getelementptr inbounds [0 x i32], ptr %52, i64 0, i64 %58
  %60 = load i32, ptr %59, align 4, !tbaa !3
  %61 = ashr i32 %60, 1
  %62 = sext i32 %61 to i64
  %63 = getelementptr inbounds i32, ptr %50, i64 %62
  %64 = load i32, ptr %63, align 4, !tbaa !3
  %65 = load ptr, ptr %5, align 8, !tbaa !47
  %66 = load ptr, ptr %4, align 8, !tbaa !45
  %67 = getelementptr inbounds nuw %struct.Pdr_Set_t_, ptr %66, i32 0, i32 4
  %68 = load ptr, ptr %6, align 8, !tbaa !47
  %69 = load i32, ptr %10, align 4, !tbaa !3
  %70 = sext i32 %69 to i64
  %71 = getelementptr inbounds i32, ptr %68, i64 %70
  %72 = load i32, ptr %71, align 4, !tbaa !3
  %73 = sext i32 %72 to i64
  %74 = getelementptr inbounds [0 x i32], ptr %67, i64 0, i64 %73
  %75 = load i32, ptr %74, align 4, !tbaa !3
  %76 = ashr i32 %75, 1
  %77 = sext i32 %76 to i64
  %78 = getelementptr inbounds i32, ptr %65, i64 %77
  %79 = load i32, ptr %78, align 4, !tbaa !3
  %80 = icmp slt i32 %64, %79
  br i1 %80, label %81, label %83

81:                                               ; preds = %49
  %82 = load i32, ptr %9, align 4, !tbaa !3
  store i32 %82, ptr %10, align 4, !tbaa !3
  br label %83

83:                                               ; preds = %81, %49
  br label %84

84:                                               ; preds = %83
  %85 = load i32, ptr %9, align 4, !tbaa !3
  %86 = add nsw i32 %85, 1
  store i32 %86, ptr %9, align 4, !tbaa !3
  br label %45, !llvm.loop !112

87:                                               ; preds = %45
  %88 = load ptr, ptr %6, align 8, !tbaa !47
  %89 = load i32, ptr %8, align 4, !tbaa !3
  %90 = sext i32 %89 to i64
  %91 = getelementptr inbounds i32, ptr %88, i64 %90
  %92 = load i32, ptr %91, align 4, !tbaa !3
  store i32 %92, ptr %7, align 4, !tbaa !3
  %93 = load ptr, ptr %6, align 8, !tbaa !47
  %94 = load i32, ptr %10, align 4, !tbaa !3
  %95 = sext i32 %94 to i64
  %96 = getelementptr inbounds i32, ptr %93, i64 %95
  %97 = load i32, ptr %96, align 4, !tbaa !3
  %98 = load ptr, ptr %6, align 8, !tbaa !47
  %99 = load i32, ptr %8, align 4, !tbaa !3
  %100 = sext i32 %99 to i64
  %101 = getelementptr inbounds i32, ptr %98, i64 %100
  store i32 %97, ptr %101, align 4, !tbaa !3
  %102 = load i32, ptr %7, align 4, !tbaa !3
  %103 = load ptr, ptr %6, align 8, !tbaa !47
  %104 = load i32, ptr %10, align 4, !tbaa !3
  %105 = sext i32 %104 to i64
  %106 = getelementptr inbounds i32, ptr %103, i64 %105
  store i32 %102, ptr %106, align 4, !tbaa !3
  br label %107

107:                                              ; preds = %87
  %108 = load i32, ptr %8, align 4, !tbaa !3
  %109 = add nsw i32 %108, 1
  store i32 %109, ptr %8, align 4, !tbaa !3
  br label %36, !llvm.loop !113

110:                                              ; preds = %36
  %111 = load ptr, ptr %6, align 8, !tbaa !47
  call void @llvm.lifetime.end.p0(i64 4, ptr %11) #10
  call void @llvm.lifetime.end.p0(i64 4, ptr %10) #10
  call void @llvm.lifetime.end.p0(i64 4, ptr %9) #10
  call void @llvm.lifetime.end.p0(i64 4, ptr %8) #10
  call void @llvm.lifetime.end.p0(i64 4, ptr %7) #10
  call void @llvm.lifetime.end.p0(i64 8, ptr %6) #10
  call void @llvm.lifetime.end.p0(i64 8, ptr %5) #10
  ret ptr %111
}