; Function Attrs: nofree norecurse nosync nounwind memory(readwrite, inaccessiblemem: none) uwtable
define ptr @Pdr_ManSortByPriority(ptr noundef readonly captures(none) %0, ptr noundef readonly captures(none) %1) local_unnamed_addr #6 {
  %3 = getelementptr inbounds nuw i8, ptr %0, i64 192
  %4 = load ptr, ptr %3, align 8, !tbaa !79
  %5 = getelementptr i8, ptr %4, i64 8
  %.val = load ptr, ptr %5, align 8, !tbaa !53
  %6 = getelementptr inbounds nuw i8, ptr %0, i64 128
  %7 = load ptr, ptr %6, align 8, !tbaa !80
  %8 = getelementptr inbounds nuw i8, ptr %1, i64 16
  %9 = load i32, ptr %8, align 8, !tbaa !51
  %10 = icmp sgt i32 %9, 0
  br i1 %10, label %.lr.ph.preheader, label %._crit_edge45

.lr.ph.preheader:                                 ; preds = %2
  %wide.trip.count = zext nneg i32 %9 to i64
  br label %.lr.ph

.preheader:                                       ; preds = %.lr.ph
  %.not = icmp eq i32 %9, 1
  br i1 %.not, label %._crit_edge45, label %.lr.ph44

.lr.ph44:                                         ; preds = %.preheader
  %11 = add nsw i32 %9, -1
  %12 = getelementptr inbounds nuw i8, ptr %1, i64 20
  %wide.trip.count57 = zext nneg i32 %11 to i64
  %wide.trip.count52 = zext nneg i32 %9 to i64
  br label %.lr.ph42.preheader

.lr.ph:                                           ; preds = %.lr.ph.preheader, %.lr.ph
  %indvars.iv = phi i64 [ 0, %.lr.ph.preheader ], [ %indvars.iv.next, %.lr.ph ]
  %13 = getelementptr inbounds nuw i32, ptr %7, i64 %indvars.iv
  %14 = trunc nuw nsw i64 %indvars.iv to i32
  store i32 %14, ptr %13, align 4, !tbaa !54
  %indvars.iv.next = add nuw nsw i64 %indvars.iv, 1
  %exitcond.not = icmp eq i64 %indvars.iv.next, %wide.trip.count
  br i1 %exitcond.not, label %.preheader, label %.lr.ph, !llvm.loop !81

.lr.ph42.preheader:                               ; preds = %._crit_edge, %.lr.ph44
  %indvars.iv54 = phi i64 [ 0, %.lr.ph44 ], [ %indvars.iv.next55, %._crit_edge ]
  %indvars.iv47 = phi i64 [ 1, %.lr.ph44 ], [ %indvars.iv.next48, %._crit_edge ]
  %indvars.iv.next55 = add nuw nsw i64 %indvars.iv54, 1
  %15 = trunc nuw nsw i64 %indvars.iv54 to i32
  br label %.lr.ph42

.lr.ph42:                                         ; preds = %.lr.ph42.preheader, %.lr.ph42
  %indvars.iv49 = phi i64 [ %indvars.iv47, %.lr.ph42.preheader ], [ %indvars.iv.next50, %.lr.ph42 ]
  %.03541 = phi i32 [ %15, %.lr.ph42.preheader ], [ %spec.select, %.lr.ph42 ]
  %16 = getelementptr inbounds nuw i32, ptr %7, i64 %indvars.iv49
  %17 = load i32, ptr %16, align 4, !tbaa !54
  %18 = sext i32 %17 to i64
  %19 = getelementptr inbounds [0 x i32], ptr %12, i64 0, i64 %18
  %20 = load i32, ptr %19, align 4, !tbaa !54
  %21 = ashr i32 %20, 1
  %22 = sext i32 %21 to i64
  %23 = getelementptr inbounds i32, ptr %.val, i64 %22
  %24 = load i32, ptr %23, align 4, !tbaa !54
  %25 = sext i32 %.03541 to i64
  %26 = getelementptr inbounds i32, ptr %7, i64 %25
  %27 = load i32, ptr %26, align 4, !tbaa !54
  %28 = sext i32 %27 to i64
  %29 = getelementptr inbounds [0 x i32], ptr %12, i64 0, i64 %28
  %30 = load i32, ptr %29, align 4, !tbaa !54
  %31 = ashr i32 %30, 1
  %32 = sext i32 %31 to i64
  %33 = getelementptr inbounds i32, ptr %.val, i64 %32
  %34 = load i32, ptr %33, align 4, !tbaa !54
  %35 = icmp slt i32 %24, %34
  %36 = trunc nuw nsw i64 %indvars.iv49 to i32
  %spec.select = select i1 %35, i32 %36, i32 %.03541
  %indvars.iv.next50 = add nuw nsw i64 %indvars.iv49, 1
  %exitcond53.not = icmp eq i64 %indvars.iv.next50, %wide.trip.count52
  br i1 %exitcond53.not, label %._crit_edge, label %.lr.ph42, !llvm.loop !82

._crit_edge:                                      ; preds = %.lr.ph42
  %37 = getelementptr inbounds nuw i32, ptr %7, i64 %indvars.iv54
  %38 = load i32, ptr %37, align 4, !tbaa !54
  %39 = sext i32 %spec.select to i64
  %40 = getelementptr inbounds i32, ptr %7, i64 %39
  %41 = load i32, ptr %40, align 4, !tbaa !54
  store i32 %41, ptr %37, align 4, !tbaa !54
  store i32 %38, ptr %40, align 4, !tbaa !54
  %indvars.iv.next48 = add nuw nsw i64 %indvars.iv47, 1
  %exitcond58.not = icmp eq i64 %indvars.iv.next55, %wide.trip.count57
  br i1 %exitcond58.not, label %._crit_edge45, label %.lr.ph42.preheader, !llvm.loop !83

._crit_edge45:                                    ; preds = %._crit_edge, %2, %.preheader
  ret ptr %7
}